target datalayout = "e-m:e-p270:32:32-p271:32:32-p272:64:64-i64:64-i128:128-f80:128-n8:16:32:64-S128"
target triple = "x86_64-unknown-linux-gnu"

%"class.logging::LogMessage" = type <{ i32, [4 x i8], %"class.std::__cxx11::basic_ostringstream", i64, ptr, i32, [4 x i8] }>
%"class.std::__cxx11::basic_ostringstream" = type { %"class.std::basic_ostream.base", %"class.std::__cxx11::basic_stringbuf", %"class.std::basic_ios" }
%"class.std::basic_ostream.base" = type { ptr }
%"class.std::__cxx11::basic_stringbuf" = type { %"class.std::basic_streambuf", i32, %"class.std::__cxx11::basic_string" }
%"class.std::basic_streambuf" = type { ptr, ptr, ptr, ptr, ptr, ptr, ptr, %"class.std::locale" }
%"class.std::locale" = type { ptr }
%"class.std::__cxx11::basic_string" = type { %"struct.std::__cxx11::basic_string<char>::_Alloc_hider", i64, %union.anon }
%"struct.std::__cxx11::basic_string<char>::_Alloc_hider" = type { ptr }
%union.anon = type { i64, [8 x i8] }
%"class.std::basic_ios" = type { %"class.std::ios_base", ptr, i8, i8, ptr, ptr, ptr, ptr }
%"class.std::ios_base" = type { ptr, i64, i64, i32, i32, i32, ptr, %"struct.std::ios_base::_Words", [8 x %"struct.std::ios_base::_Words"], i32, ptr, %"class.std::locale" }
%"struct.std::ios_base::_Words" = type { ptr, i64 }
%"class.net::AeadBaseDecrypter" = type { %"class.net::QuicDecrypter", ptr, i64, i64, i64, i8, [32 x i8], [4 x i8], %"class.net::ScopedEVPAEADCtx" }
%"class.net::QuicDecrypter" = type { ptr }
%"class.net::ScopedEVPAEADCtx" = type { %struct.evp_aead_ctx_st }
%struct.evp_aead_ctx_st = type { ptr, ptr }
%"class.base::BasicStringPiece" = type { ptr, i64 }
%"class.logging::LogMessageVoidify" = type { i8 }

@.str = private unnamed_addr constant [141 x i8] c"generated/home/dtcxzyw/WorkSpace/Projects/compilers/llvm-opt-benchmark/bench/libquic/libquic/src/net/quic/core/crypto/aead_base_decrypter.cc\00", align 1
@.str.1 = private unnamed_addr constant [55 x i8] c"Unable to decrypt while key diversification is pending\00", align 1

; Function Attrs: mustprogress uwtable
define internal void @_ZN3net12_GLOBAL__N_118ClearOpenSslErrorsEv() #0 {
entry:
  br label %while.cond

while.cond:                                       ; preds = %while.body, %entry
  %call = call i32 @ERR_get_error()
  %tobool = icmp ne i32 %call, 0
  br i1 %tobool, label %while.body, label %while.end

while.body:                                       ; preds = %while.cond
  br label %while.cond, !llvm.loop !5

while.end:                                        ; preds = %while.cond
  ret void
}

; Function Attrs: mustprogress nounwind uwtable
define linkonce_odr dso_local void @_ZN7logging17LogMessageVoidifyanERSo(ptr noundef nonnull align 1 dereferenceable(1) %this, ptr noundef nonnull align 8 dereferenceable(8) %0) #1 comdat align 2 {
entry:
  %this.addr = alloca ptr, align 8
  %.addr = alloca ptr, align 8
  store ptr %this, ptr %this.addr, align 8
  store ptr %0, ptr %.addr, align 8
  ret void
}

; Function Attrs: mustprogress nounwind uwtable
define linkonce_odr dso_local noundef nonnull align 8 dereferenceable(8) ptr @_ZN7logging10LogMessage6streamEv(ptr noundef nonnull align 8 dereferenceable(404) %this) #1 comdat align 2 {
entry:
  %this.addr = alloca ptr, align 8
  store ptr %this, ptr %this.addr, align 8
  %this1 = load ptr, ptr %this.addr, align 8
  %stream_ = getelementptr inbounds %"class.logging::LogMessage", ptr %this1, i32 0, i32 2
  ret ptr %stream_
}

; Function Attrs: mustprogress nounwind uwtable
define linkonce_odr dso_local void @_ZN7logging17LogMessageVoidifyC2Ev(ptr noundef nonnull align 1 dereferenceable(1) %this) unnamed_addr #1 comdat align 2 {
entry:
  %this.addr = alloca ptr, align 8
  store ptr %this, ptr %this.addr, align 8
  ret void
}

; Function Attrs: mustprogress uwtable
define dso_local noundef zeroext i1 @_ZN3net17AeadBaseDecrypter13DecryptPacketEhmN4base16BasicStringPieceINSt7__cxx1112basic_stringIcSt11char_traitsIcESaIcEEEEES9_PcPmm(ptr noundef nonnull align 8 dereferenceable(96) %this, i8 noundef zeroext %path_id, i64 noundef %packet_number, ptr %associated_data.coerce0, i64 %associated_data.coerce1, ptr noundef byval(%"class.base::BasicStringPiece") align 8 %ciphertext, ptr noundef %output, ptr noundef %output_length, i64 noundef %max_output_length) unnamed_addr #0 align 2 personality ptr @__gxx_personality_v0 {
entry:
  %retval = alloca i1, align 1
  %associated_data = alloca %"class.base::BasicStringPiece", align 8
  %this.addr = alloca ptr, align 8
  %path_id.addr = alloca i8, align 1
  %packet_number.addr = alloca i64, align 8
  %output.addr = alloca ptr, align 8
  %output_length.addr = alloca ptr, align 8
  %max_output_length.addr = alloca i64, align 8
  %ref.tmp = alloca %"class.logging::LogMessageVoidify", align 1
  %ref.tmp4 = alloca %"class.logging::LogMessage", align 8
  %cleanup.cond = alloca i1, align 1
  %exn.slot = alloca ptr, align 8
  %ehselector.slot = alloca i32, align 4
  %nonce = alloca [12 x i8], align 1
  %nonce_size = alloca i64, align 8
  %path_id_packet_number = alloca i64, align 8
  %0 = getelementptr inbounds { ptr, i64 }, ptr %associated_data, i32 0, i32 0
  store ptr %associated_data.coerce0, ptr %0, align 8
  %1 = getelementptr inbounds { ptr, i64 }, ptr %associated_data, i32 0, i32 1
  store i64 %associated_data.coerce1, ptr %1, align 8
  store ptr %this, ptr %this.addr, align 8
  store i8 %path_id, ptr %path_id.addr, align 1
  store i64 %packet_number, ptr %packet_number.addr, align 8
  store ptr %output, ptr %output.addr, align 8
  store ptr %output_length, ptr %output_length.addr, align 8
  store i64 %max_output_length, ptr %max_output_length.addr, align 8
  %this1 = load ptr, ptr %this.addr, align 8
  %call = call noundef i64 @_ZNK4base16BasicStringPieceINSt7__cxx1112basic_stringIcSt11char_traitsIcESaIcEEEE6lengthEv(ptr noundef nonnull align 8 dereferenceable(16) %ciphertext)
  %auth_tag_size_ = getelementptr inbounds %"class.net::AeadBaseDecrypter", ptr %this1, i32 0, i32 3
  %2 = load i64, ptr %auth_tag_size_, align 8
  %cmp = icmp ult i64 %call, %2
  br i1 %cmp, label %if.then, label %if.end

if.then:                                          ; preds = %entry
  store i1 false, ptr %retval, align 1
  br label %return

if.end:                                           ; preds = %entry
  %have_preliminary_key_ = getelementptr inbounds %"class.net::AeadBaseDecrypter", ptr %this1, i32 0, i32 5
  %3 = load i8, ptr %have_preliminary_key_, align 8
  %tobool = trunc i8 %3 to i1
  br i1 %tobool, label %if.then2, label %if.end12

if.then2:                                         ; preds = %if.end
  %call3 = call noundef zeroext i1 @_ZN7logging22ShouldCreateLogMessageEi(i32 noundef 2)
  store i1 false, ptr %cleanup.cond, align 1
  br i1 %call3, label %cond.false, label %cond.true

cond.true:                                        ; preds = %if.then2
  br label %cond.end

cond.false:                                       ; preds = %if.then2
  call void @_ZN7logging17LogMessageVoidifyC2Ev(ptr noundef nonnull align 1 dereferenceable(1) %ref.tmp)
  call void @_ZN7logging10LogMessageC1EPKcii(ptr noundef nonnull align 8 dereferenceable(404) %ref.tmp4, ptr noundef @.str, i32 noundef 130, i32 noundef 2)
  store i1 true, ptr %cleanup.cond, align 1
  %call5 = invoke noundef nonnull align 8 dereferenceable(8) ptr @_ZN7logging10LogMessage6streamEv(ptr noundef nonnull align 8 dereferenceable(404) %ref.tmp4)
          to label %invoke.cont unwind label %lpad

invoke.cont:                                      ; preds = %cond.false
  %call7 = invoke noundef nonnull align 8 dereferenceable(8) ptr @_ZStlsISt11char_traitsIcEERSt13basic_ostreamIcT_ES5_PKc(ptr noundef nonnull align 8 dereferenceable(8) %call5, ptr noundef @.str.1)
          to label %invoke.cont6 unwind label %lpad

invoke.cont6:                                     ; preds = %invoke.cont
  invoke void @_ZN7logging17LogMessageVoidifyanERSo(ptr noundef nonnull align 1 dereferenceable(1) %ref.tmp, ptr noundef nonnull align 8 dereferenceable(8) %call7)
          to label %invoke.cont8 unwind label %lpad

invoke.cont8:                                     ; preds = %invoke.cont6
  br label %cond.end

cond.end:                                         ; preds = %invoke.cont8, %cond.true
  %cleanup.is_active = load i1, ptr %cleanup.cond, align 1
  br i1 %cleanup.is_active, label %cleanup.action, label %cleanup.done

cleanup.action:                                   ; preds = %cond.end
  call void @_ZN7logging10LogMessageD1Ev(ptr noundef nonnull align 8 dereferenceable(404) %ref.tmp4) #6
  br label %cleanup.done

cleanup.done:                                     ; preds = %cleanup.action, %cond.end
  store i1 false, ptr %retval, align 1
  br label %return

lpad:                                             ; preds = %invoke.cont6, %invoke.cont, %cond.false
  %4 = landingpad { ptr, i32 }
          cleanup
  %5 = extractvalue { ptr, i32 } %4, 0
  store ptr %5, ptr %exn.slot, align 8
  %6 = extractvalue { ptr, i32 } %4, 1
  store i32 %6, ptr %ehselector.slot, align 4
  %cleanup.is_active9 = load i1, ptr %cleanup.cond, align 1
  br i1 %cleanup.is_active9, label %cleanup.action10, label %cleanup.done11

cleanup.action10:                                 ; preds = %lpad
  call void @_ZN7logging10LogMessageD1Ev(ptr noundef nonnull align 8 dereferenceable(404) %ref.tmp4) #6
  br label %cleanup.done11

cleanup.done11:                                   ; preds = %cleanup.action10, %lpad
  br label %eh.resume

if.end12:                                         ; preds = %if.end
  %nonce_prefix_size_ = getelementptr inbounds %"class.net::AeadBaseDecrypter", ptr %this1, i32 0, i32 4
  %7 = load i64, ptr %nonce_prefix_size_, align 8
  %add = add i64 %7, 8
  store i64 %add, ptr %nonce_size, align 8
  %arraydecay = getelementptr inbounds [12 x i8], ptr %nonce, i64 0, i64 0
  %nonce_prefix_ = getelementptr inbounds %"class.net::AeadBaseDecrypter", ptr %this1, i32 0, i32 7
  %arraydecay13 = getelementptr inbounds [4 x i8], ptr %nonce_prefix_, i64 0, i64 0
  %nonce_prefix_size_14 = getelementptr inbounds %"class.net::AeadBaseDecrypter", ptr %this1, i32 0, i32 4
  %8 = load i64, ptr %nonce_prefix_size_14, align 8
  call void @llvm.memcpy.p0.p0.i64(ptr align 1 %arraydecay, ptr align 1 %arraydecay13, i64 %8, i1 false)
  %9 = load i8, ptr %path_id.addr, align 1
  %10 = load i64, ptr %packet_number.addr, align 8
  %call15 = call noundef i64 @_ZN3net9QuicUtils25PackPathIdAndPacketNumberEhm(i8 noundef zeroext %9, i64 noundef %10)
  store i64 %call15, ptr %path_id_packet_number, align 8
  %arraydecay16 = getelementptr inbounds [12 x i8], ptr %nonce, i64 0, i64 0
  %nonce_prefix_size_17 = getelementptr inbounds %"class.net::AeadBaseDecrypter", ptr %this1, i32 0, i32 4
  %11 = load i64, ptr %nonce_prefix_size_17, align 8
  %add.ptr = getelementptr inbounds i8, ptr %arraydecay16, i64 %11
  call void @llvm.memcpy.p0.p0.i64(ptr align 1 %add.ptr, ptr align 8 %path_id_packet_number, i64 8, i1 false)
  %ctx_ = getelementptr inbounds %"class.net::AeadBaseDecrypter", ptr %this1, i32 0, i32 8
  %call18 = call noundef ptr @_ZN3net16ScopedEVPAEADCtx3getEv(ptr noundef nonnull align 8 dereferenceable(16) %ctx_)
  %12 = load ptr, ptr %output.addr, align 8
  %13 = load ptr, ptr %output_length.addr, align 8
  %14 = load i64, ptr %max_output_length.addr, align 8
  %arraydecay19 = getelementptr inbounds [12 x i8], ptr %nonce, i64 0, i64 0
  %15 = load i64, ptr %nonce_size, align 8
  %call20 = call noundef ptr @_ZNK4base16BasicStringPieceINSt7__cxx1112basic_stringIcSt11char_traitsIcESaIcEEEE4dataEv(ptr noundef nonnull align 8 dereferenceable(16) %ciphertext)
  %call21 = call noundef i64 @_ZNK4base16BasicStringPieceINSt7__cxx1112basic_stringIcSt11char_traitsIcESaIcEEEE4sizeEv(ptr noundef nonnull align 8 dereferenceable(16) %ciphertext)
  %call22 = call noundef ptr @_ZNK4base16BasicStringPieceINSt7__cxx1112basic_stringIcSt11char_traitsIcESaIcEEEE4dataEv(ptr noundef nonnull align 8 dereferenceable(16) %associated_data)
  %call23 = call noundef i64 @_ZNK4base16BasicStringPieceINSt7__cxx1112basic_stringIcSt11char_traitsIcESaIcEEEE4sizeEv(ptr noundef nonnull align 8 dereferenceable(16) %associated_data)
  %call24 = call i32 @EVP_AEAD_CTX_open(ptr noundef %call18, ptr noundef %12, ptr noundef %13, i64 noundef %14, ptr noundef %arraydecay19, i64 noundef %15, ptr noundef %call20, i64 noundef %call21, ptr noundef %call22, i64 noundef %call23)
  %tobool25 = icmp ne i32 %call24, 0
  br i1 %tobool25, label %if.end27, label %if.then26

if.then26:                                        ; preds = %if.end12
  call void @_ZN3net12_GLOBAL__N_118ClearOpenSslErrorsEv()
  store i1 false, ptr %retval, align 1
  br label %return

if.end27:                                         ; preds = %if.end12
  store i1 true, ptr %retval, align 1
  br label %return

return:                                           ; preds = %if.end27, %if.then26, %cleanup.done, %if.then
  %16 = load i1, ptr %retval, align 1
  ret i1 %16

eh.resume:                                        ; preds = %cleanup.done11
  %exn = load ptr, ptr %exn.slot, align 8
  %sel = load i32, ptr %ehselector.slot, align 4
  %lpad.val = insertvalue { ptr, i32 } poison, ptr %exn, 0
  %lpad.val28 = insertvalue { ptr, i32 } %lpad.val, i32 %sel, 1
  resume { ptr, i32 } %lpad.val28
}