; Function Attrs: mustprogress uwtable
define dso_local noundef zeroext i1 @_ZN3net17AeadBaseDecrypter13DecryptPacketEhmN4base16BasicStringPieceINSt7__cxx1112basic_stringIcSt11char_traitsIcESaIcEEEEES9_PcPmm(ptr noundef nonnull align 8 dereferenceable(96) %this, i8 noundef zeroext %path_id, i64 noundef %packet_number, ptr %associated_data.coerce0, i64 %associated_data.coerce1, ptr noundef nonnull byval(%"class.base::BasicStringPiece") align 8 %ciphertext, ptr noundef %output, ptr noundef %output_length, i64 noundef %max_output_length) unnamed_addr #0 align 2 personality ptr @__gxx_personality_v0 {
entry:
  %associated_data = alloca %"class.base::BasicStringPiece", align 8
  %ref.tmp4 = alloca %"class.logging::LogMessage", align 8
  %nonce = alloca [12 x i8], align 1
  store ptr %associated_data.coerce0, ptr %associated_data, align 8
  %0 = getelementptr inbounds i8, ptr %associated_data, i64 8
  store i64 %associated_data.coerce1, ptr %0, align 8
  %call = call noundef i64 @_ZNK4base16BasicStringPieceINSt7__cxx1112basic_stringIcSt11char_traitsIcESaIcEEEE6lengthEv(ptr noundef nonnull align 8 dereferenceable(16) %ciphertext)
  %auth_tag_size_ = getelementptr inbounds i8, ptr %this, i64 24
  %1 = load i64, ptr %auth_tag_size_, align 8
  %cmp = icmp ult i64 %call, %1
  br i1 %cmp, label %return, label %if.end

if.end:                                           ; preds = %entry
  %have_preliminary_key_ = getelementptr inbounds i8, ptr %this, i64 40
  %2 = load i8, ptr %have_preliminary_key_, align 8
  %3 = and i8 %2, 1
  %tobool.not = icmp eq i8 %3, 0
  br i1 %tobool.not, label %if.end12, label %if.then2

if.then2:                                         ; preds = %if.end
  %call3 = call noundef zeroext i1 @_ZN7logging22ShouldCreateLogMessageEi(i32 noundef 2)
  br i1 %call3, label %cond.false, label %return

cond.false:                                       ; preds = %if.then2
  call void @_ZN7logging10LogMessageC1EPKcii(ptr noundef nonnull align 8 dereferenceable(404) %ref.tmp4, ptr noundef nonnull @.str, i32 noundef 130, i32 noundef 2)
  %stream_.i = getelementptr inbounds i8, ptr %ref.tmp4, i64 8
  %call7 = invoke noundef nonnull align 8 dereferenceable(8) ptr @_ZStlsISt11char_traitsIcEERSt13basic_ostreamIcT_ES5_PKc(ptr noundef nonnull align 8 dereferenceable(8) %stream_.i, ptr noundef nonnull @.str.1)
          to label %cleanup.action unwind label %lpad

cleanup.action:                                   ; preds = %cond.false
  call void @_ZN7logging10LogMessageD1Ev(ptr noundef nonnull align 8 dereferenceable(404) %ref.tmp4) #7
  br label %return

lpad:                                             ; preds = %cond.false
  %4 = landingpad { ptr, i32 }
          cleanup
  call void @_ZN7logging10LogMessageD1Ev(ptr noundef nonnull align 8 dereferenceable(404) %ref.tmp4) #7
  resume { ptr, i32 } %4

if.end12:                                         ; preds = %if.end
  %nonce_prefix_size_ = getelementptr inbounds i8, ptr %this, i64 32
  %5 = load i64, ptr %nonce_prefix_size_, align 8
  %add = add i64 %5, 8
  %nonce_prefix_ = getelementptr inbounds i8, ptr %this, i64 73
  call void @llvm.memcpy.p0.p0.i64(ptr nonnull align 1 %nonce, ptr nonnull align 1 %nonce_prefix_, i64 %5, i1 false)
  %call15 = call noundef i64 @_ZN3net9QuicUtils25PackPathIdAndPacketNumberEhm(i8 noundef zeroext %path_id, i64 noundef %packet_number)
  %6 = load i64, ptr %nonce_prefix_size_, align 8
  %add.ptr = getelementptr inbounds i8, ptr %nonce, i64 %6
  store i64 %call15, ptr %add.ptr, align 1
  %ctx_ = getelementptr inbounds i8, ptr %this, i64 80
  %call18 = call noundef ptr @_ZN3net16ScopedEVPAEADCtx3getEv(ptr noundef nonnull align 8 dereferenceable(16) %ctx_)
  %call20 = call noundef ptr @_ZNK4base16BasicStringPieceINSt7__cxx1112basic_stringIcSt11char_traitsIcESaIcEEEE4dataEv(ptr noundef nonnull align 8 dereferenceable(16) %ciphertext)
  %call21 = call noundef i64 @_ZNK4base16BasicStringPieceINSt7__cxx1112basic_stringIcSt11char_traitsIcESaIcEEEE4sizeEv(ptr noundef nonnull align 8 dereferenceable(16) %ciphertext)
  %call22 = call noundef ptr @_ZNK4base16BasicStringPieceINSt7__cxx1112basic_stringIcSt11char_traitsIcESaIcEEEE4dataEv(ptr noundef nonnull align 8 dereferenceable(16) %associated_data)
  %call23 = call noundef i64 @_ZNK4base16BasicStringPieceINSt7__cxx1112basic_stringIcSt11char_traitsIcESaIcEEEE4sizeEv(ptr noundef nonnull align 8 dereferenceable(16) %associated_data)
  %call24 = call i32 @EVP_AEAD_CTX_open(ptr noundef %call18, ptr noundef %output, ptr noundef %output_length, i64 noundef %max_output_length, ptr noundef nonnull %nonce, i64 noundef %add, ptr noundef %call20, i64 noundef %call21, ptr noundef %call22, i64 noundef %call23)
  %tobool25.not = icmp eq i32 %call24, 0
  br i1 %tobool25.not, label %while.cond.i, label %return

while.cond.i:                                     ; preds = %if.end12, %while.cond.i
  %call.i = call i32 @ERR_get_error()
  %tobool.not.i = icmp eq i32 %call.i, 0
  br i1 %tobool.not.i, label %return, label %while.cond.i, !llvm.loop !5

return:                                           ; preds = %while.cond.i, %if.end12, %cleanup.action, %if.then2, %entry
  %retval.0 = phi i1 [ false, %entry ], [ false, %if.then2 ], [ false, %cleanup.action ], [ true, %if.end12 ], [ false, %while.cond.i ]
  ret i1 %retval.0
}